target datalayout = "e-m:e-p270:32:32-p271:32:32-p272:64:64-i64:64-i128:128-f80:128-n8:16:32:64-S128"
target triple = "x86_64-unknown-linux-gnu"

%"struct.std::_Vector_base.18" = type { %"struct.std::_Vector_base<char, std::allocator<char>>::_Vector_impl" }
%"struct.std::_Vector_base<char, std::allocator<char>>::_Vector_impl" = type { %"struct.std::_Vector_base<char, std::allocator<char>>::_Vector_impl_data" }
%"struct.std::_Vector_base<char, std::allocator<char>>::_Vector_impl_data" = type { ptr, ptr, ptr }
%"class.__gnu_cxx::__normal_iterator.56" = type { ptr }
%"class.Assimp::Compression" = type { ptr }

; Function Attrs: mustprogress nounwind uwtable
define linkonce_odr noundef ptr @_ZNSt11__copy_moveILb0ELb1ESt26random_access_iterator_tagE8__copy_mIcEEPT_PKS3_S6_S4_(ptr noundef %__first, ptr noundef %__last, ptr noundef %__result) #0 comdat align 2 {
entry:
  %__first.addr = alloca ptr, align 8
  %__last.addr = alloca ptr, align 8
  %__result.addr = alloca ptr, align 8
  %_Num = alloca i64, align 8
  store ptr %__first, ptr %__first.addr, align 8
  store ptr %__last, ptr %__last.addr, align 8
  store ptr %__result, ptr %__result.addr, align 8
  %0 = load ptr, ptr %__last.addr, align 8
  %1 = load ptr, ptr %__first.addr, align 8
  %sub.ptr.lhs.cast = ptrtoint ptr %0 to i64
  %sub.ptr.rhs.cast = ptrtoint ptr %1 to i64
  %sub.ptr.sub = sub i64 %sub.ptr.lhs.cast, %sub.ptr.rhs.cast
  store i64 %sub.ptr.sub, ptr %_Num, align 8
  %2 = load i64, ptr %_Num, align 8
  %tobool = icmp ne i64 %2, 0
  br i1 %tobool, label %if.then, label %if.end

if.then:                                          ; preds = %entry
  %3 = load ptr, ptr %__result.addr, align 8
  %4 = load ptr, ptr %__first.addr, align 8
  %5 = load i64, ptr %_Num, align 8
  %mul = mul i64 1, %5
  call void @llvm.memmove.p0.p0.i64(ptr align 1 %3, ptr align 1 %4, i64 %mul, i1 false)
  br label %if.end

if.end:                                           ; preds = %if.then, %entry
  %6 = load ptr, ptr %__result.addr, align 8
  %7 = load i64, ptr %_Num, align 8
  %add.ptr = getelementptr inbounds i8, ptr %6, i64 %7
  ret ptr %add.ptr
}

; Function Attrs: mustprogress nounwind uwtable
define linkonce_odr ptr @_ZNK9__gnu_cxx17__normal_iteratorIPcSt6vectorIcSaIcEEEplEl(ptr noundef nonnull align 8 dereferenceable(8) %this, i64 noundef %__n) #0 comdat align 2 {
entry:
  %retval = alloca %"class.__gnu_cxx::__normal_iterator.56", align 8
  %this.addr = alloca ptr, align 8
  %__n.addr = alloca i64, align 8
  %ref.tmp = alloca ptr, align 8
  store ptr %this, ptr %this.addr, align 8
  store i64 %__n, ptr %__n.addr, align 8
  %this1 = load ptr, ptr %this.addr, align 8
  %_M_current = getelementptr inbounds %"class.__gnu_cxx::__normal_iterator.56", ptr %this1, i32 0, i32 0
  %0 = load ptr, ptr %_M_current, align 8
  %1 = load i64, ptr %__n.addr, align 8
  %add.ptr = getelementptr inbounds i8, ptr %0, i64 %1
  store ptr %add.ptr, ptr %ref.tmp, align 8
  call void @_ZN9__gnu_cxx17__normal_iteratorIPcSt6vectorIcSaIcEEEC2ERKS1_(ptr noundef nonnull align 8 dereferenceable(8) %retval, ptr noundef nonnull align 8 dereferenceable(8) %ref.tmp) #5
  %coerce.dive = getelementptr inbounds %"class.__gnu_cxx::__normal_iterator.56", ptr %retval, i32 0, i32 0
  %2 = load ptr, ptr %coerce.dive, align 8
  ret ptr %2
}

; Function Attrs: mustprogress uwtable
define linkonce_odr noundef ptr @_ZSt14__copy_move_a2ILb0EPKcPcET1_T0_S4_S3_(ptr noundef %__first, ptr noundef %__last, ptr noundef %__result) #6 comdat {
entry:
  %__first.addr = alloca ptr, align 8
  %__last.addr = alloca ptr, align 8
  %__result.addr = alloca ptr, align 8
  store ptr %__first, ptr %__first.addr, align 8
  store ptr %__last, ptr %__last.addr, align 8
  store ptr %__result, ptr %__result.addr, align 8
  %0 = load ptr, ptr %__first.addr, align 8
  %1 = load ptr, ptr %__last.addr, align 8
  %2 = load ptr, ptr %__result.addr, align 8
  %call = call noundef ptr @_ZNSt11__copy_moveILb0ELb1ESt26random_access_iterator_tagE8__copy_mIcEEPT_PKS3_S6_S4_(ptr noundef %0, ptr noundef %1, ptr noundef %2)
  ret ptr %call
}

; Function Attrs: mustprogress nounwind uwtable
define linkonce_odr noundef nonnull align 8 dereferenceable(8) ptr @_ZNK9__gnu_cxx17__normal_iteratorIPcSt6vectorIcSaIcEEE4baseEv(ptr noundef nonnull align 8 dereferenceable(8) %this) #0 comdat align 2 {
entry:
  %this.addr = alloca ptr, align 8
  store ptr %this, ptr %this.addr, align 8
  %this1 = load ptr, ptr %this.addr, align 8
  %_M_current = getelementptr inbounds %"class.__gnu_cxx::__normal_iterator.56", ptr %this1, i32 0, i32 0
  ret ptr %_M_current
}

; Function Attrs: mustprogress nounwind uwtable
define linkonce_odr ptr @_ZSt12__niter_wrapIN9__gnu_cxx17__normal_iteratorIPcSt6vectorIcSaIcEEEES2_ET_S7_T0_(ptr %__from.coerce, ptr noundef %__res) #0 comdat {
entry:
  %retval = alloca %"class.__gnu_cxx::__normal_iterator.56", align 8
  %__from = alloca %"class.__gnu_cxx::__normal_iterator.56", align 8
  %__res.addr = alloca ptr, align 8
  %agg.tmp = alloca %"class.__gnu_cxx::__normal_iterator.56", align 8
  %coerce.dive = getelementptr inbounds %"class.__gnu_cxx::__normal_iterator.56", ptr %__from, i32 0, i32 0
  store ptr %__from.coerce, ptr %coerce.dive, align 8
  store ptr %__res, ptr %__res.addr, align 8
  %0 = load ptr, ptr %__res.addr, align 8
  call void @llvm.memcpy.p0.p0.i64(ptr align 8 %agg.tmp, ptr align 8 %__from, i64 8, i1 false)
  %coerce.dive1 = getelementptr inbounds %"class.__gnu_cxx::__normal_iterator.56", ptr %agg.tmp, i32 0, i32 0
  %1 = load ptr, ptr %coerce.dive1, align 8
  %call = call noundef ptr @_ZSt12__niter_baseIPcSt6vectorIcSaIcEEET_N9__gnu_cxx17__normal_iteratorIS4_T0_EE(ptr %1) #5
  %sub.ptr.lhs.cast = ptrtoint ptr %0 to i64
  %sub.ptr.rhs.cast = ptrtoint ptr %call to i64
  %sub.ptr.sub = sub i64 %sub.ptr.lhs.cast, %sub.ptr.rhs.cast
  %call2 = call ptr @_ZNK9__gnu_cxx17__normal_iteratorIPcSt6vectorIcSaIcEEEplEl(ptr noundef nonnull align 8 dereferenceable(8) %__from, i64 noundef %sub.ptr.sub) #5
  %coerce.dive3 = getelementptr inbounds %"class.__gnu_cxx::__normal_iterator.56", ptr %retval, i32 0, i32 0
  store ptr %call2, ptr %coerce.dive3, align 8
  %coerce.dive4 = getelementptr inbounds %"class.__gnu_cxx::__normal_iterator.56", ptr %retval, i32 0, i32 0
  %2 = load ptr, ptr %coerce.dive4, align 8
  ret ptr %2
}

; Function Attrs: mustprogress uwtable
define linkonce_odr noundef ptr @_ZSt14__copy_move_a1ILb0EPKcPcET1_T0_S4_S3_(ptr noundef %__first, ptr noundef %__last, ptr noundef %__result) #6 comdat {
entry:
  %__first.addr = alloca ptr, align 8
  %__last.addr = alloca ptr, align 8
  %__result.addr = alloca ptr, align 8
  store ptr %__first, ptr %__first.addr, align 8
  store ptr %__last, ptr %__last.addr, align 8
  store ptr %__result, ptr %__result.addr, align 8
  %0 = load ptr, ptr %__first.addr, align 8
  %1 = load ptr, ptr %__last.addr, align 8
  %2 = load ptr, ptr %__result.addr, align 8
  %call = call noundef ptr @_ZSt14__copy_move_a2ILb0EPKcPcET1_T0_S4_S3_(ptr noundef %0, ptr noundef %1, ptr noundef %2)
  ret ptr %call
}

; Function Attrs: mustprogress nounwind uwtable
define linkonce_odr noundef ptr @_ZSt12__niter_baseIPcSt6vectorIcSaIcEEET_N9__gnu_cxx17__normal_iteratorIS4_T0_EE(ptr %__it.coerce) #0 comdat {
entry:
  %__it = alloca %"class.__gnu_cxx::__normal_iterator.56", align 8
  %coerce.dive = getelementptr inbounds %"class.__gnu_cxx::__normal_iterator.56", ptr %__it, i32 0, i32 0
  store ptr %__it.coerce, ptr %coerce.dive, align 8
  %call = call noundef nonnull align 8 dereferenceable(8) ptr @_ZNK9__gnu_cxx17__normal_iteratorIPcSt6vectorIcSaIcEEE4baseEv(ptr noundef nonnull align 8 dereferenceable(8) %__it) #5
  %0 = load ptr, ptr %call, align 8
  ret ptr %0
}

; Function Attrs: mustprogress nounwind uwtable
define linkonce_odr noundef ptr @_ZSt12__niter_baseIPKcET_S2_(ptr noundef %__it) #0 comdat {
entry:
  %__it.addr = alloca ptr, align 8
  store ptr %__it, ptr %__it.addr, align 8
  %0 = load ptr, ptr %__it.addr, align 8
  ret ptr %0
}

; Function Attrs: mustprogress uwtable
define linkonce_odr ptr @_ZSt13__copy_move_aILb0EPKcN9__gnu_cxx17__normal_iteratorIPcSt6vectorIcSaIcEEEEET1_T0_SA_S9_(ptr noundef %__first, ptr noundef %__last, ptr %__result.coerce) #6 comdat {
entry:
  %retval = alloca %"class.__gnu_cxx::__normal_iterator.56", align 8
  %__result = alloca %"class.__gnu_cxx::__normal_iterator.56", align 8
  %__first.addr = alloca ptr, align 8
  %__last.addr = alloca ptr, align 8
  %agg.tmp = alloca %"class.__gnu_cxx::__normal_iterator.56", align 8
  %agg.tmp2 = alloca %"class.__gnu_cxx::__normal_iterator.56", align 8
  %coerce.dive = getelementptr inbounds %"class.__gnu_cxx::__normal_iterator.56", ptr %__result, i32 0, i32 0
  store ptr %__result.coerce, ptr %coerce.dive, align 8
  store ptr %__first, ptr %__first.addr, align 8
  store ptr %__last, ptr %__last.addr, align 8
  call void @llvm.memcpy.p0.p0.i64(ptr align 8 %agg.tmp, ptr align 8 %__result, i64 8, i1 false)
  %0 = load ptr, ptr %__first.addr, align 8
  %call = call noundef ptr @_ZSt12__niter_baseIPKcET_S2_(ptr noundef %0) #5
  %1 = load ptr, ptr %__last.addr, align 8
  %call1 = call noundef ptr @_ZSt12__niter_baseIPKcET_S2_(ptr noundef %1) #5
  call void @llvm.memcpy.p0.p0.i64(ptr align 8 %agg.tmp2, ptr align 8 %__result, i64 8, i1 false)
  %coerce.dive3 = getelementptr inbounds %"class.__gnu_cxx::__normal_iterator.56", ptr %agg.tmp2, i32 0, i32 0
  %2 = load ptr, ptr %coerce.dive3, align 8
  %call4 = call noundef ptr @_ZSt12__niter_baseIPcSt6vectorIcSaIcEEET_N9__gnu_cxx17__normal_iteratorIS4_T0_EE(ptr %2) #5
  %call5 = call noundef ptr @_ZSt14__copy_move_a1ILb0EPKcPcET1_T0_S4_S3_(ptr noundef %call, ptr noundef %call1, ptr noundef %call4)
  %coerce.dive6 = getelementptr inbounds %"class.__gnu_cxx::__normal_iterator.56", ptr %agg.tmp, i32 0, i32 0
  %3 = load ptr, ptr %coerce.dive6, align 8
  %call7 = call ptr @_ZSt12__niter_wrapIN9__gnu_cxx17__normal_iteratorIPcSt6vectorIcSaIcEEEES2_ET_S7_T0_(ptr %3, ptr noundef %call5)
  %coerce.dive8 = getelementptr inbounds %"class.__gnu_cxx::__normal_iterator.56", ptr %retval, i32 0, i32 0
  store ptr %call7, ptr %coerce.dive8, align 8
  %coerce.dive9 = getelementptr inbounds %"class.__gnu_cxx::__normal_iterator.56", ptr %retval, i32 0, i32 0
  %4 = load ptr, ptr %coerce.dive9, align 8
  ret ptr %4
}

; Function Attrs: mustprogress nounwind uwtable
define linkonce_odr noundef ptr @_ZSt12__miter_baseIPKcET_S2_(ptr noundef %__it) #0 comdat {
entry:
  %__it.addr = alloca ptr, align 8
  store ptr %__it, ptr %__it.addr, align 8
  %0 = load ptr, ptr %__it.addr, align 8
  ret ptr %0
}

; Function Attrs: mustprogress nounwind uwtable
define linkonce_odr void @_ZN9__gnu_cxx17__normal_iteratorIPcSt6vectorIcSaIcEEEC2ERKS1_(ptr noundef nonnull align 8 dereferenceable(8) %this, ptr noundef nonnull align 8 dereferenceable(8) %__i) unnamed_addr #0 comdat align 2 {
entry:
  %this.addr = alloca ptr, align 8
  %__i.addr = alloca ptr, align 8
  store ptr %this, ptr %this.addr, align 8
  store ptr %__i, ptr %__i.addr, align 8
  %this1 = load ptr, ptr %this.addr, align 8
  %_M_current = getelementptr inbounds %"class.__gnu_cxx::__normal_iterator.56", ptr %this1, i32 0, i32 0
  %0 = load ptr, ptr %__i.addr, align 8
  %1 = load ptr, ptr %0, align 8
  store ptr %1, ptr %_M_current, align 8
  ret void
}

; Function Attrs: mustprogress uwtable
define linkonce_odr ptr @_ZSt4copyIPKcN9__gnu_cxx17__normal_iteratorIPcSt6vectorIcSaIcEEEEET0_T_SA_S9_(ptr noundef %__first, ptr noundef %__last, ptr %__result.coerce) #6 comdat {
entry:
  %retval = alloca %"class.__gnu_cxx::__normal_iterator.56", align 8
  %__result = alloca %"class.__gnu_cxx::__normal_iterator.56", align 8
  %__first.addr = alloca ptr, align 8
  %__last.addr = alloca ptr, align 8
  %agg.tmp = alloca %"class.__gnu_cxx::__normal_iterator.56", align 8
  %coerce.dive = getelementptr inbounds %"class.__gnu_cxx::__normal_iterator.56", ptr %__result, i32 0, i32 0
  store ptr %__result.coerce, ptr %coerce.dive, align 8
  store ptr %__first, ptr %__first.addr, align 8
  store ptr %__last, ptr %__last.addr, align 8
  %0 = load ptr, ptr %__first.addr, align 8
  %call = call noundef ptr @_ZSt12__miter_baseIPKcET_S2_(ptr noundef %0)
  %1 = load ptr, ptr %__last.addr, align 8
  %call1 = call noundef ptr @_ZSt12__miter_baseIPKcET_S2_(ptr noundef %1)
  call void @llvm.memcpy.p0.p0.i64(ptr align 8 %agg.tmp, ptr align 8 %__result, i64 8, i1 false)
  %coerce.dive2 = getelementptr inbounds %"class.__gnu_cxx::__normal_iterator.56", ptr %agg.tmp, i32 0, i32 0
  %2 = load ptr, ptr %coerce.dive2, align 8
  %call3 = call ptr @_ZSt13__copy_move_aILb0EPKcN9__gnu_cxx17__normal_iteratorIPcSt6vectorIcSaIcEEEEET1_T0_SA_S9_(ptr noundef %call, ptr noundef %call1, ptr %2)
  %coerce.dive4 = getelementptr inbounds %"class.__gnu_cxx::__normal_iterator.56", ptr %retval, i32 0, i32 0
  store ptr %call3, ptr %coerce.dive4, align 8
  %coerce.dive5 = getelementptr inbounds %"class.__gnu_cxx::__normal_iterator.56", ptr %retval, i32 0, i32 0
  %3 = load ptr, ptr %coerce.dive5, align 8
  ret ptr %3
}

; Function Attrs: mustprogress nounwind uwtable
define linkonce_odr ptr @_ZNSt6vectorIcSaIcEE5beginEv(ptr noundef nonnull align 8 dereferenceable(24) %this) #0 comdat align 2 {
entry:
  %retval = alloca %"class.__gnu_cxx::__normal_iterator.56", align 8
  %this.addr = alloca ptr, align 8
  store ptr %this, ptr %this.addr, align 8
  %this1 = load ptr, ptr %this.addr, align 8
  %_M_impl = getelementptr inbounds %"struct.std::_Vector_base.18", ptr %this1, i32 0, i32 0
  %_M_start = getelementptr inbounds %"struct.std::_Vector_base<char, std::allocator<char>>::_Vector_impl_data", ptr %_M_impl, i32 0, i32 0
  call void @_ZN9__gnu_cxx17__normal_iteratorIPcSt6vectorIcSaIcEEEC2ERKS1_(ptr noundef nonnull align 8 dereferenceable(8) %retval, ptr noundef nonnull align 8 dereferenceable(8) %_M_start) #5
  %coerce.dive = getelementptr inbounds %"class.__gnu_cxx::__normal_iterator.56", ptr %retval, i32 0, i32 0
  %0 = load ptr, ptr %coerce.dive, align 8
  ret ptr %0
}

; Function Attrs: mustprogress nounwind uwtable
define internal noundef i32 @_ZN12_GLOBAL__N_19SafeParseIjEET_PKcS3_(ptr noundef %data, ptr noundef %end) #0 {
entry:
  %data.addr = alloca ptr, align 8
  %end.addr = alloca ptr, align 8
  %result = alloca i32, align 4
  store ptr %data, ptr %data.addr, align 8
  store ptr %end, ptr %end.addr, align 8
  store i32 0, ptr %result, align 4
  %0 = load ptr, ptr %data.addr, align 8
  call void @llvm.memcpy.p0.p0.i64(ptr align 4 %result, ptr align 1 %0, i64 4, i1 false)
  %1 = load i32, ptr %result, align 4
  ret i32 %1
}

; Function Attrs: mustprogress uwtable
define internal void @_ZN6Assimp3FBX12_GLOBAL__N_119ReadBinaryDataArrayEcjRPKcS3_RSt6vectorIcSaIcEERKNS0_7ElementE(i8 noundef signext %type, i32 noundef %count, ptr noundef nonnull align 8 dereferenceable(8) %data, ptr noundef %end, ptr noundef nonnull align 8 dereferenceable(24) %buff, ptr noundef nonnull align 8 dereferenceable(40) %0) #6 personality ptr @__gxx_personality_v0 {
entry:
  %type.addr = alloca i8, align 1
  %count.addr = alloca i32, align 4
  %data.addr = alloca ptr, align 8
  %end.addr = alloca ptr, align 8
  %buff.addr = alloca ptr, align 8
  %.addr = alloca ptr, align 8
  %encmode = alloca i32, align 4
  %comp_len = alloca i32, align 4
  %stride = alloca i32, align 4
  %full_length = alloca i32, align 4
  %agg.tmp = alloca %"class.__gnu_cxx::__normal_iterator.56", align 8
  %coerce = alloca %"class.__gnu_cxx::__normal_iterator.56", align 8
  %compress = alloca %"class.Assimp::Compression", align 8
  %exn.slot = alloca ptr, align 8
  %ehselector.slot = alloca i32, align 4
  store i8 %type, ptr %type.addr, align 1
  store i32 %count, ptr %count.addr, align 4
  store ptr %data, ptr %data.addr, align 8
  store ptr %end, ptr %end.addr, align 8
  store ptr %buff, ptr %buff.addr, align 8
  store ptr %0, ptr %.addr, align 8
  %1 = load ptr, ptr %data.addr, align 8
  %2 = load ptr, ptr %1, align 8
  %3 = load ptr, ptr %end.addr, align 8
  %call = call noundef i32 @_ZN12_GLOBAL__N_19SafeParseIjEET_PKcS3_(ptr noundef %2, ptr noundef %3)
  store i32 %call, ptr %encmode, align 4
  %4 = load ptr, ptr %data.addr, align 8
  %5 = load ptr, ptr %4, align 8
  %add.ptr = getelementptr inbounds i8, ptr %5, i64 4
  store ptr %add.ptr, ptr %4, align 8
  %6 = load ptr, ptr %data.addr, align 8
  %7 = load ptr, ptr %6, align 8
  %8 = load ptr, ptr %end.addr, align 8
  %call1 = call noundef i32 @_ZN12_GLOBAL__N_19SafeParseIjEET_PKcS3_(ptr noundef %7, ptr noundef %8)
  store i32 %call1, ptr %comp_len, align 4
  %9 = load ptr, ptr %data.addr, align 8
  %10 = load ptr, ptr %9, align 8
  %add.ptr2 = getelementptr inbounds i8, ptr %10, i64 4
  store ptr %add.ptr2, ptr %9, align 8
  store i32 0, ptr %stride, align 4
  %11 = load i8, ptr %type.addr, align 1
  %conv = sext i8 %11 to i32
  switch i32 %conv, label %sw.default [
    i32 102, label %sw.bb
    i32 105, label %sw.bb
    i32 100, label %sw.bb3
    i32 108, label %sw.bb3
  ]

sw.bb:                                            ; preds = %entry, %entry
  store i32 4, ptr %stride, align 4
  br label %sw.epilog

sw.bb3:                                           ; preds = %entry, %entry
  store i32 8, ptr %stride, align 4
  br label %sw.epilog

sw.default:                                       ; preds = %entry
  br label %sw.epilog

sw.epilog:                                        ; preds = %sw.default, %sw.bb3, %sw.bb
  %12 = load i32, ptr %stride, align 4
  %13 = load i32, ptr %count.addr, align 4
  %mul = mul i32 %12, %13
  store i32 %mul, ptr %full_length, align 4
  %14 = load ptr, ptr %buff.addr, align 8
  %15 = load i32, ptr %full_length, align 4
  %conv4 = zext i32 %15 to i64
  call void @_ZNSt6vectorIcSaIcEE6resizeEm(ptr noundef nonnull align 8 dereferenceable(24) %14, i64 noundef %conv4)
  %16 = load i32, ptr %encmode, align 4
  %cmp = icmp eq i32 %16, 0
  br i1 %cmp, label %if.then, label %if.else

if.then:                                          ; preds = %sw.epilog
  %17 = load ptr, ptr %data.addr, align 8
  %18 = load ptr, ptr %17, align 8
  %19 = load ptr, ptr %end.addr, align 8
  %20 = load ptr, ptr %buff.addr, align 8
  %call5 = call ptr @_ZNSt6vectorIcSaIcEE5beginEv(ptr noundef nonnull align 8 dereferenceable(24) %20) #5
  %coerce.dive = getelementptr inbounds %"class.__gnu_cxx::__normal_iterator.56", ptr %agg.tmp, i32 0, i32 0
  store ptr %call5, ptr %coerce.dive, align 8
  %coerce.dive6 = getelementptr inbounds %"class.__gnu_cxx::__normal_iterator.56", ptr %agg.tmp, i32 0, i32 0
  %21 = load ptr, ptr %coerce.dive6, align 8
  %call7 = call ptr @_ZSt4copyIPKcN9__gnu_cxx17__normal_iteratorIPcSt6vectorIcSaIcEEEEET0_T_SA_S9_(ptr noundef %18, ptr noundef %19, ptr %21)
  %coerce.dive8 = getelementptr inbounds %"class.__gnu_cxx::__normal_iterator.56", ptr %coerce, i32 0, i32 0
  store ptr %call7, ptr %coerce.dive8, align 8
  br label %if.end19

if.else:                                          ; preds = %sw.epilog
  %22 = load i32, ptr %encmode, align 4
  %cmp9 = icmp eq i32 %22, 1
  br i1 %cmp9, label %if.then10, label %if.end18

if.then10:                                        ; preds = %if.else
  call void @_ZN6Assimp11CompressionC1Ev(ptr noundef nonnull align 8 dereferenceable(8) %compress)
  %call11 = invoke noundef zeroext i1 @_ZN6Assimp11Compression4openENS0_6FormatENS0_9FlushModeEi(ptr noundef nonnull align 8 dereferenceable(8) %compress, i32 noundef 0, i32 noundef 4, i32 noundef 0)
          to label %invoke.cont unwind label %lpad

invoke.cont:                                      ; preds = %if.then10
  br i1 %call11, label %if.then12, label %if.end

if.then12:                                        ; preds = %invoke.cont
  %23 = load ptr, ptr %data.addr, align 8
  %24 = load ptr, ptr %23, align 8
  %25 = load i32, ptr %comp_len, align 4
  %conv13 = zext i32 %25 to i64
  %26 = load ptr, ptr %buff.addr, align 8
  %call15 = invoke noundef i64 @_ZN6Assimp11Compression10decompressEPKvmRSt6vectorIcSaIcEE(ptr noundef nonnull align 8 dereferenceable(8) %compress, ptr noundef %24, i64 noundef %conv13, ptr noundef nonnull align 8 dereferenceable(24) %26)
          to label %invoke.cont14 unwind label %lpad

invoke.cont14:                                    ; preds = %if.then12
  %call17 = invoke noundef zeroext i1 @_ZN6Assimp11Compression5closeEv(ptr noundef nonnull align 8 dereferenceable(8) %compress)
          to label %invoke.cont16 unwind label %lpad

invoke.cont16:                                    ; preds = %invoke.cont14
  br label %if.end

lpad:                                             ; preds = %invoke.cont14, %if.then12, %if.then10
  %27 = landingpad { ptr, i32 }
          cleanup
  %28 = extractvalue { ptr, i32 } %27, 0
  store ptr %28, ptr %exn.slot, align 8
  %29 = extractvalue { ptr, i32 } %27, 1
  store i32 %29, ptr %ehselector.slot, align 4
  call void @_ZN6Assimp11CompressionD1Ev(ptr noundef nonnull align 8 dereferenceable(8) %compress) #5
  br label %eh.resume

if.end:                                           ; preds = %invoke.cont16, %invoke.cont
  call void @_ZN6Assimp11CompressionD1Ev(ptr noundef nonnull align 8 dereferenceable(8) %compress) #5
  br label %if.end18

if.end18:                                         ; preds = %if.end, %if.else
  br label %if.end19

if.end19:                                         ; preds = %if.end18, %if.then
  %30 = load i32, ptr %comp_len, align 4
  %31 = load ptr, ptr %data.addr, align 8
  %32 = load ptr, ptr %31, align 8
  %idx.ext = zext i32 %30 to i64
  %add.ptr20 = getelementptr inbounds i8, ptr %32, i64 %idx.ext
  store ptr %add.ptr20, ptr %31, align 8
  ret void

eh.resume:                                        ; preds = %lpad
  %exn = load ptr, ptr %exn.slot, align 8
  %sel = load i32, ptr %ehselector.slot, align 4
  %lpad.val = insertvalue { ptr, i32 } poison, ptr %exn, 0
  %lpad.val21 = insertvalue { ptr, i32 } %lpad.val, i32 %sel, 1
  resume { ptr, i32 } %lpad.val21
}