; Function Attrs: mustprogress uwtable
define internal fastcc void @_ZN6Assimp3FBX12_GLOBAL__N_119ReadBinaryDataArrayEcjRPKcS3_RSt6vectorIcSaIcEERKNS0_7ElementE(i8 noundef signext %type, i32 noundef %count, ptr nocapture noundef nonnull align 8 dereferenceable(8) %data, ptr noundef %end, ptr noundef nonnull align 8 dereferenceable(24) %buff) unnamed_addr #3 personality ptr @__gxx_personality_v0 {
entry:
  %compress = alloca %"class.Assimp::Compression", align 8
  %0 = load ptr, ptr %data, align 8
  %.val = load i32, ptr %0, align 1
  %add.ptr = getelementptr inbounds i8, ptr %0, i64 4
  store ptr %add.ptr, ptr %data, align 8
  %add.ptr.val = load i32, ptr %add.ptr, align 1
  %add.ptr2 = getelementptr inbounds i8, ptr %0, i64 8
  store ptr %add.ptr2, ptr %data, align 8
  %switch.tableidx = add i8 %type, -100
  %1 = icmp ult i8 %switch.tableidx, 9
  br i1 %1, label %switch.lookup, label %sw.epilog

switch.lookup:                                    ; preds = %entry
  %2 = zext nneg i8 %switch.tableidx to i64
  %switch.gep = getelementptr inbounds [9 x i32], ptr @switch.table._ZN6Assimp3FBX12_GLOBAL__N_119ReadBinaryDataArrayEcjRPKcS3_RSt6vectorIcSaIcEERKNS0_7ElementE, i64 0, i64 %2
  %switch.load = load i32, ptr %switch.gep, align 4
  br label %sw.epilog

sw.epilog:                                        ; preds = %switch.lookup, %entry
  %stride.0 = phi i32 [ 0, %entry ], [ %switch.load, %switch.lookup ]
  %mul = mul i32 %stride.0, %count
  %conv4 = zext i32 %mul to i64
  tail call void @_ZNSt6vectorIcSaIcEE6resizeEm(ptr noundef nonnull align 8 dereferenceable(24) %buff, i64 noundef %conv4)
  switch i32 %.val, label %if.end19 [
    i32 0, label %if.then
    i32 1, label %if.then10
  ]

if.then:                                          ; preds = %sw.epilog
  %3 = load ptr, ptr %data, align 8
  %tobool.not.i.i.i.i.i = icmp eq ptr %3, %end
  br i1 %tobool.not.i.i.i.i.i, label %if.end19, label %if.then.i.i.i.i.i

if.then.i.i.i.i.i:                                ; preds = %if.then
  %sub.ptr.lhs.cast.i.i.i.i.i = ptrtoint ptr %end to i64
  %sub.ptr.rhs.cast.i.i.i.i.i = ptrtoint ptr %3 to i64
  %sub.ptr.sub.i.i.i.i.i = sub i64 %sub.ptr.lhs.cast.i.i.i.i.i, %sub.ptr.rhs.cast.i.i.i.i.i
  %4 = load ptr, ptr %buff, align 8
  tail call void @llvm.memmove.p0.p0.i64(ptr align 1 %4, ptr align 1 %3, i64 %sub.ptr.sub.i.i.i.i.i, i1 false)
  br label %if.end19

if.then10:                                        ; preds = %sw.epilog
  call void @_ZN6Assimp11CompressionC1Ev(ptr noundef nonnull align 8 dereferenceable(8) %compress)
  %call11 = invoke noundef zeroext i1 @_ZN6Assimp11Compression4openENS0_6FormatENS0_9FlushModeEi(ptr noundef nonnull align 8 dereferenceable(8) %compress, i32 noundef 0, i32 noundef 4, i32 noundef 0)
          to label %invoke.cont unwind label %lpad

invoke.cont:                                      ; preds = %if.then10
  br i1 %call11, label %if.then12, label %if.end

if.then12:                                        ; preds = %invoke.cont
  %5 = load ptr, ptr %data, align 8
  %conv13 = zext i32 %add.ptr.val to i64
  %call15 = invoke noundef i64 @_ZN6Assimp11Compression10decompressEPKvmRSt6vectorIcSaIcEE(ptr noundef nonnull align 8 dereferenceable(8) %compress, ptr noundef %5, i64 noundef %conv13, ptr noundef nonnull align 8 dereferenceable(24) %buff)
          to label %invoke.cont14 unwind label %lpad

invoke.cont14:                                    ; preds = %if.then12
  %call17 = invoke noundef zeroext i1 @_ZN6Assimp11Compression5closeEv(ptr noundef nonnull align 8 dereferenceable(8) %compress)
          to label %if.end unwind label %lpad

lpad:                                             ; preds = %invoke.cont14, %if.then12, %if.then10
  %6 = landingpad { ptr, i32 }
          cleanup
  call void @_ZN6Assimp11CompressionD1Ev(ptr noundef nonnull align 8 dereferenceable(8) %compress) #21
  resume { ptr, i32 } %6

if.end:                                           ; preds = %invoke.cont14, %invoke.cont
  call void @_ZN6Assimp11CompressionD1Ev(ptr noundef nonnull align 8 dereferenceable(8) %compress) #21
  br label %if.end19

if.end19:                                         ; preds = %if.then.i.i.i.i.i, %if.then, %sw.epilog, %if.end
  %7 = load ptr, ptr %data, align 8
  %idx.ext = zext i32 %add.ptr.val to i64
  %add.ptr20 = getelementptr inbounds i8, ptr %7, i64 %idx.ext
  store ptr %add.ptr20, ptr %data, align 8
  ret void
}